target datalayout = "e-m:e-p270:32:32-p271:32:32-p272:64:64-i64:64-i128:128-f80:128-n8:16:32:64-S128"
target triple = "x86_64-pc-linux-gnu"

%struct.pmix_lock_t = type { i32, %struct.pmix_mutex_t, %union.pthread_cond_t, i8 }
%struct.pmix_mutex_t = type { %struct.pmix_object_t, %union.pthread_mutex_t }
%struct.pmix_object_t = type { %union.pthread_mutex_t, ptr, i32, %struct.pmix_tma }
%struct.pmix_tma = type { ptr, ptr, ptr, ptr, ptr, ptr, ptr, ptr }
%union.pthread_mutex_t = type { %struct.__pthread_mutex_s }
%struct.__pthread_mutex_s = type { i32, i32, i32, i32, i32, i16, i16, %struct.__pthread_internal_list }
%struct.__pthread_internal_list = type { ptr, ptr }
%union.pthread_cond_t = type { %struct.__pthread_cond_s }
%struct.__pthread_cond_s = type { %union.__atomic_wide_counter, %union.__atomic_wide_counter, [2 x i32], [2 x i32], i32, i32, [2 x i32] }
%union.__atomic_wide_counter = type { i64 }
%struct.timeval = type { i64, i64 }
%struct.pmix_list_t = type { %struct.pmix_object_t, %struct.pmix_list_item_t, i64 }
%struct.pmix_list_item_t = type { %struct.pmix_object_t, ptr, ptr, i32 }
%struct.pmix_class_t = type { ptr, ptr, ptr, ptr, i32, i32, ptr, ptr, i64 }
%struct.pmix_cb_t = type { %struct.pmix_list_item_t, %struct.event, %struct.pmix_lock_t, i8, i32, i32, i8, %struct.pmix_buffer_t, %union.anon.9, i64, ptr, %struct.pmix_name_t, ptr, ptr, ptr, ptr, i64, ptr, i64, ptr, i8, i64, %struct.pmix_list_t, i8, ptr, i8, ptr, ptr }
%struct.event = type { %struct.event_callback, %union.anon.2, i32, ptr, %union.anon.4, i16, i16, %struct.timeval }
%struct.event_callback = type { %struct.anon.0, i16, i8, i8, %union.anon.1, ptr }
%struct.anon.0 = type { ptr, ptr }
%union.anon.1 = type { ptr }
%union.anon.2 = type { %struct.anon.3 }
%struct.anon.3 = type { ptr, ptr }
%union.anon.4 = type { %struct.anon.5 }
%struct.anon.5 = type { %struct.anon.6, %struct.timeval }
%struct.anon.6 = type { ptr, ptr }
%struct.pmix_buffer_t = type { %struct.pmix_object_t, i8, ptr, ptr, ptr, i64, i64 }
%union.anon.9 = type { ptr }
%struct.pmix_name_t = type { ptr, i32 }

@.str.65 = private unnamed_addr constant [21 x i8] c"pthread_mutex_lock()\00", align 1

; Function Attrs: inlinehint nounwind uwtable
define internal void @pmix_tma_free(ptr noundef %0, ptr noundef %1) #2 {
  %3 = alloca ptr, align 8
  %4 = alloca ptr, align 8
  store ptr %0, ptr %3, align 8, !tbaa !89
  store ptr %1, ptr %4, align 8, !tbaa !55
  %5 = load ptr, ptr %3, align 8, !tbaa !89
  %6 = icmp ne ptr null, %5
  br i1 %6, label %7, label %13

7:                                                ; preds = %2
  %8 = load ptr, ptr %3, align 8, !tbaa !89
  %9 = getelementptr inbounds nuw %struct.pmix_tma, ptr %8, i32 0, i32 5
  %10 = load ptr, ptr %9, align 8, !tbaa !133
  %11 = load ptr, ptr %3, align 8, !tbaa !89
  %12 = load ptr, ptr %4, align 8, !tbaa !55
  call void %10(ptr noundef %11, ptr noundef %12)
  br label %15

13:                                               ; preds = %2
  %14 = load ptr, ptr %4, align 8, !tbaa !55
  call void @free(ptr noundef %14) #11
  br label %15

15:                                               ; preds = %13, %7
  ret void
}

; Function Attrs: inlinehint nounwind uwtable
define internal void @pmix_obj_run_destructors(ptr noundef %0) #2 {
  %2 = alloca ptr, align 8
  %3 = alloca ptr, align 8
  store ptr %0, ptr %2, align 8, !tbaa !57
  call void @llvm.lifetime.start.p0(i64 8, ptr %3) #11
  %4 = load ptr, ptr %2, align 8, !tbaa !57
  %5 = getelementptr inbounds nuw %struct.pmix_object_t, ptr %4, i32 0, i32 1
  %6 = load ptr, ptr %5, align 8, !tbaa !94
  %7 = getelementptr inbounds nuw %struct.pmix_class_t, ptr %6, i32 0, i32 7
  %8 = load ptr, ptr %7, align 8, !tbaa !131
  store ptr %8, ptr %3, align 8, !tbaa !55
  br label %9

9:                                                ; preds = %13, %1
  %10 = load ptr, ptr %3, align 8, !tbaa !55
  %11 = load ptr, ptr %10, align 8, !tbaa !55
  %12 = icmp ne ptr null, %11
  br i1 %12, label %13, label %19

13:                                               ; preds = %9
  %14 = load ptr, ptr %3, align 8, !tbaa !55
  %15 = load ptr, ptr %14, align 8, !tbaa !55
  %16 = load ptr, ptr %2, align 8, !tbaa !57
  call void %15(ptr noundef %16)
  %17 = load ptr, ptr %3, align 8, !tbaa !55
  %18 = getelementptr inbounds nuw ptr, ptr %17, i32 1
  store ptr %18, ptr %3, align 8, !tbaa !55
  br label %9, !llvm.loop !132

19:                                               ; preds = %9
  call void @llvm.lifetime.end.p0(i64 8, ptr %3) #11
  ret void
}

; Function Attrs: alwaysinline nounwind uwtable
define internal i32 @pmix_obj_update(ptr noundef %0, i32 noundef %1) #5 {
  %3 = alloca ptr, align 8
  %4 = alloca i32, align 4
  %5 = alloca i32, align 4
  store ptr %0, ptr %3, align 8, !tbaa !57
  store i32 %1, ptr %4, align 4, !tbaa !56
  call void @llvm.lifetime.start.p0(i64 4, ptr %5) #11
  %6 = load ptr, ptr %3, align 8, !tbaa !57
  %7 = getelementptr inbounds nuw %struct.pmix_object_t, ptr %6, i32 0, i32 0
  %8 = call i32 @pthread_mutex_lock(ptr noundef %7) #11
  store i32 %8, ptr %5, align 4, !tbaa !56
  %9 = load i32, ptr %5, align 4, !tbaa !56
  %10 = icmp eq i32 %9, 35
  br i1 %10, label %11, label %14

11:                                               ; preds = %2
  %12 = load i32, ptr %5, align 4, !tbaa !56
  %13 = call ptr @__errno_location() #14
  store i32 %12, ptr %13, align 4, !tbaa !56
  call void @perror(ptr noundef @.str.65)
  call void @abort() #15
  unreachable

14:                                               ; preds = %2
  %15 = load i32, ptr %4, align 4, !tbaa !56
  %16 = load ptr, ptr %3, align 8, !tbaa !57
  %17 = getelementptr inbounds nuw %struct.pmix_object_t, ptr %16, i32 0, i32 2
  %18 = load i32, ptr %17, align 8, !tbaa !95
  %19 = add nsw i32 %18, %15
  store i32 %19, ptr %17, align 8, !tbaa !95
  store i32 %19, ptr %5, align 4, !tbaa !56
  %20 = load ptr, ptr %3, align 8, !tbaa !57
  %21 = getelementptr inbounds nuw %struct.pmix_object_t, ptr %20, i32 0, i32 0
  %22 = call i32 @pthread_mutex_unlock(ptr noundef %21) #11
  %23 = load i32, ptr %5, align 4, !tbaa !56
  call void @llvm.lifetime.end.p0(i64 4, ptr %5) #11
  ret i32 %23
}

; Function Attrs: nounwind uwtable
define internal void @gcbfn(i32 noundef %0, i16 noundef signext %1, ptr noundef %2) #0 {
  %4 = alloca i32, align 4
  %5 = alloca i16, align 2
  %6 = alloca ptr, align 8
  %7 = alloca ptr, align 8
  %8 = alloca ptr, align 8
  %9 = alloca ptr, align 8
  store i32 %0, ptr %4, align 4, !tbaa !56
  store i16 %1, ptr %5, align 2, !tbaa !158
  store ptr %2, ptr %6, align 8, !tbaa !55
  call void @llvm.lifetime.start.p0(i64 8, ptr %7) #11
  %10 = load ptr, ptr %6, align 8, !tbaa !55
  store ptr %10, ptr %7, align 8, !tbaa !55
  %11 = load ptr, ptr %7, align 8, !tbaa !55
  %12 = getelementptr inbounds nuw %struct.pmix_cb_t, ptr %11, i32 0, i32 8
  %13 = load ptr, ptr %12, align 8, !tbaa !78
  %14 = load ptr, ptr %7, align 8, !tbaa !55
  %15 = getelementptr inbounds nuw %struct.pmix_cb_t, ptr %14, i32 0, i32 4
  %16 = load i32, ptr %15, align 4, !tbaa !83
  %17 = load ptr, ptr %7, align 8, !tbaa !55
  %18 = getelementptr inbounds nuw %struct.pmix_cb_t, ptr %17, i32 0, i32 13
  %19 = load ptr, ptr %18, align 8, !tbaa !84
  %20 = load ptr, ptr %7, align 8, !tbaa !55
  %21 = getelementptr inbounds nuw %struct.pmix_cb_t, ptr %20, i32 0, i32 10
  %22 = load ptr, ptr %21, align 8, !tbaa !79
  call void %13(i32 noundef %16, ptr noundef %19, ptr noundef %22)
  br label %23

23:                                               ; preds = %3
  call void @llvm.lifetime.start.p0(i64 8, ptr %8) #11
  %24 = load ptr, ptr %7, align 8, !tbaa !55
  %25 = getelementptr inbounds nuw %struct.pmix_cb_t, ptr %24, i32 0, i32 24
  %26 = load ptr, ptr %25, align 8, !tbaa !64
  store ptr %26, ptr %8, align 8, !tbaa !57
  %27 = load ptr, ptr %8, align 8, !tbaa !57
  %28 = call i32 @pmix_obj_update(ptr noundef %27, i32 noundef -1)
  %29 = icmp eq i32 0, %28
  br i1 %29, label %30, label %50

30:                                               ; preds = %23
  %31 = load ptr, ptr %8, align 8, !tbaa !57
  call void @pmix_obj_run_destructors(ptr noundef %31)
  %32 = load ptr, ptr %8, align 8, !tbaa !57
  %33 = getelementptr inbounds nuw %struct.pmix_object_t, ptr %32, i32 0, i32 3
  %34 = getelementptr inbounds nuw %struct.pmix_tma, ptr %33, i32 0, i32 5
  %35 = load ptr, ptr %34, align 8, !tbaa !59
  %36 = icmp ne ptr null, %35
  br i1 %36, label %37, label %43

37:                                               ; preds = %30
  %38 = load ptr, ptr %8, align 8, !tbaa !57
  %39 = getelementptr inbounds nuw %struct.pmix_object_t, ptr %38, i32 0, i32 3
  %40 = load ptr, ptr %7, align 8, !tbaa !55
  %41 = getelementptr inbounds nuw %struct.pmix_cb_t, ptr %40, i32 0, i32 24
  %42 = load ptr, ptr %41, align 8, !tbaa !64
  call void @pmix_tma_free(ptr noundef %39, ptr noundef %42)
  br label %47

43:                                               ; preds = %30
  %44 = load ptr, ptr %7, align 8, !tbaa !55
  %45 = getelementptr inbounds nuw %struct.pmix_cb_t, ptr %44, i32 0, i32 24
  %46 = load ptr, ptr %45, align 8, !tbaa !64
  call void @free(ptr noundef %46) #11
  br label %47

47:                                               ; preds = %43, %37
  %48 = load ptr, ptr %7, align 8, !tbaa !55
  %49 = getelementptr inbounds nuw %struct.pmix_cb_t, ptr %48, i32 0, i32 24
  store ptr null, ptr %49, align 8, !tbaa !64
  br label %50

50:                                               ; preds = %47, %23
  call void @llvm.lifetime.end.p0(i64 8, ptr %8) #11
  br label %51

51:                                               ; preds = %50
  br label %52

52:                                               ; preds = %51
  br label %53

53:                                               ; preds = %52
  call void @llvm.lifetime.start.p0(i64 8, ptr %9) #11
  %54 = load ptr, ptr %7, align 8, !tbaa !55
  store ptr %54, ptr %9, align 8, !tbaa !57
  %55 = load ptr, ptr %9, align 8, !tbaa !57
  %56 = call i32 @pmix_obj_update(ptr noundef %55, i32 noundef -1)
  %57 = icmp eq i32 0, %56
  br i1 %57, label %58, label %72

58:                                               ; preds = %53
  %59 = load ptr, ptr %9, align 8, !tbaa !57
  call void @pmix_obj_run_destructors(ptr noundef %59)
  %60 = load ptr, ptr %9, align 8, !tbaa !57
  %61 = getelementptr inbounds nuw %struct.pmix_object_t, ptr %60, i32 0, i32 3
  %62 = getelementptr inbounds nuw %struct.pmix_tma, ptr %61, i32 0, i32 5
  %63 = load ptr, ptr %62, align 8, !tbaa !59
  %64 = icmp ne ptr null, %63
  br i1 %64, label %65, label %69

65:                                               ; preds = %58
  %66 = load ptr, ptr %9, align 8, !tbaa !57
  %67 = getelementptr inbounds nuw %struct.pmix_object_t, ptr %66, i32 0, i32 3
  %68 = load ptr, ptr %7, align 8, !tbaa !55
  call void @pmix_tma_free(ptr noundef %67, ptr noundef %68)
  br label %71

69:                                               ; preds = %58
  %70 = load ptr, ptr %7, align 8, !tbaa !55
  call void @free(ptr noundef %70) #11
  br label %71

71:                                               ; preds = %69, %65
  store ptr null, ptr %7, align 8, !tbaa !55
  br label %72

72:                                               ; preds = %71, %53
  call void @llvm.lifetime.end.p0(i64 8, ptr %9) #11
  br label %73

73:                                               ; preds = %72
  br label %74

74:                                               ; preds = %73
  call void @llvm.lifetime.end.p0(i64 8, ptr %7) #11
  ret void
}