; Function Attrs: nounwind uwtable
define internal void @gcbfn(i32 %0, i16 signext %1, ptr noundef %2) #0 {
  %4 = getelementptr inbounds nuw i8, ptr %2, i64 680
  %5 = load ptr, ptr %4, align 8, !tbaa !47
  %6 = getelementptr inbounds nuw i8, ptr %2, i64 500
  %7 = load i32, ptr %6, align 4, !tbaa !85
  %8 = getelementptr inbounds nuw i8, ptr %2, i64 728
  %9 = load ptr, ptr %8, align 8, !tbaa !86
  %10 = getelementptr inbounds nuw i8, ptr %2, i64 696
  %11 = load ptr, ptr %10, align 8, !tbaa !81
  tail call void %5(i32 noundef %7, ptr noundef %9, ptr noundef %11) #14
  %12 = getelementptr inbounds nuw i8, ptr %2, i64 1080
  %13 = load ptr, ptr %12, align 8, !tbaa !65
  %14 = tail call i32 @pthread_mutex_lock(ptr noundef %13) #14
  %15 = icmp eq i32 %14, 35
  br i1 %15, label %16, label %pmix_obj_update.exit21

16:                                               ; preds = %3
  %17 = tail call ptr @__errno_location() #16
  store i32 35, ptr %17, align 4, !tbaa !51
  tail call void @perror(ptr noundef nonnull @.str.65) #17
  tail call void @abort() #18
  unreachable

pmix_obj_update.exit21:                           ; preds = %3
  %18 = getelementptr inbounds nuw i8, ptr %13, i64 48
  %19 = load i32, ptr %18, align 8, !tbaa !54
  %20 = add nsw i32 %19, -1
  store i32 %20, ptr %18, align 8, !tbaa !54
  %21 = tail call i32 @pthread_mutex_unlock(ptr noundef %13) #14
  %22 = icmp eq i32 %20, 0
  br i1 %22, label %23, label %40

23:                                               ; preds = %pmix_obj_update.exit21
  %24 = getelementptr inbounds nuw i8, ptr %13, i64 40
  %25 = load ptr, ptr %24, align 8, !tbaa !53
  %26 = getelementptr inbounds nuw i8, ptr %25, i64 48
  %27 = load ptr, ptr %26, align 8, !tbaa !58
  %28 = load ptr, ptr %27, align 8, !tbaa !56
  %.not6.i = icmp eq ptr %28, null
  br i1 %.not6.i, label %pmix_obj_run_destructors.exit, label %.lr.ph.i

.lr.ph.i:                                         ; preds = %23, %.lr.ph.i
  %29 = phi ptr [ %31, %.lr.ph.i ], [ %28, %23 ]
  %.07.i = phi ptr [ %30, %.lr.ph.i ], [ %27, %23 ]
  tail call void %29(ptr noundef %13) #14
  %30 = getelementptr inbounds nuw i8, ptr %.07.i, i64 8
  %31 = load ptr, ptr %30, align 8, !tbaa !56
  %.not.i = icmp eq ptr %31, null
  br i1 %.not.i, label %pmix_obj_run_destructors.exit, label %.lr.ph.i, !llvm.loop !59

pmix_obj_run_destructors.exit:                    ; preds = %.lr.ph.i, %23
  %32 = getelementptr inbounds nuw i8, ptr %13, i64 96
  %33 = load ptr, ptr %32, align 8, !tbaa !60
  %.not = icmp eq ptr %33, null
  br i1 %.not, label %37, label %34

34:                                               ; preds = %pmix_obj_run_destructors.exit
  %35 = getelementptr inbounds nuw i8, ptr %13, i64 56
  %36 = load ptr, ptr %12, align 8, !tbaa !65
  tail call void %33(ptr noundef nonnull %35, ptr noundef %36) #14
  br label %39

37:                                               ; preds = %pmix_obj_run_destructors.exit
  %38 = load ptr, ptr %12, align 8, !tbaa !65
  tail call void @free(ptr noundef %38) #14
  br label %39

39:                                               ; preds = %37, %34
  store ptr null, ptr %12, align 8, !tbaa !65
  br label %40

40:                                               ; preds = %39, %pmix_obj_update.exit21
  %41 = tail call i32 @pthread_mutex_lock(ptr noundef nonnull %2) #14
  %42 = icmp eq i32 %41, 35
  br i1 %42, label %43, label %pmix_obj_update.exit

43:                                               ; preds = %40
  %44 = tail call ptr @__errno_location() #16
  store i32 35, ptr %44, align 4, !tbaa !51
  tail call void @perror(ptr noundef nonnull @.str.65) #17
  tail call void @abort() #18
  unreachable

pmix_obj_update.exit:                             ; preds = %40
  %45 = getelementptr inbounds nuw i8, ptr %2, i64 48
  %46 = load i32, ptr %45, align 8, !tbaa !54
  %47 = add nsw i32 %46, -1
  store i32 %47, ptr %45, align 8, !tbaa !54
  %48 = tail call i32 @pthread_mutex_unlock(ptr noundef nonnull %2) #14
  %49 = icmp eq i32 %47, 0
  br i1 %49, label %50, label %64

50:                                               ; preds = %pmix_obj_update.exit
  %51 = getelementptr inbounds nuw i8, ptr %2, i64 40
  %52 = load ptr, ptr %51, align 8, !tbaa !53
  %53 = getelementptr inbounds nuw i8, ptr %52, i64 48
  %54 = load ptr, ptr %53, align 8, !tbaa !58
  %55 = load ptr, ptr %54, align 8, !tbaa !56
  %.not6.i23 = icmp eq ptr %55, null
  br i1 %.not6.i23, label %pmix_obj_run_destructors.exit27, label %.lr.ph.i24

.lr.ph.i24:                                       ; preds = %50, %.lr.ph.i24
  %56 = phi ptr [ %58, %.lr.ph.i24 ], [ %55, %50 ]
  %.07.i25 = phi ptr [ %57, %.lr.ph.i24 ], [ %54, %50 ]
  tail call void %56(ptr noundef nonnull %2) #14
  %57 = getelementptr inbounds nuw i8, ptr %.07.i25, i64 8
  %58 = load ptr, ptr %57, align 8, !tbaa !56
  %.not.i26 = icmp eq ptr %58, null
  br i1 %.not.i26, label %pmix_obj_run_destructors.exit27, label %.lr.ph.i24, !llvm.loop !59

pmix_obj_run_destructors.exit27:                  ; preds = %.lr.ph.i24, %50
  %59 = getelementptr inbounds nuw i8, ptr %2, i64 96
  %60 = load ptr, ptr %59, align 8, !tbaa !60
  %.not20 = icmp eq ptr %60, null
  br i1 %.not20, label %63, label %61

61:                                               ; preds = %pmix_obj_run_destructors.exit27
  %62 = getelementptr inbounds nuw i8, ptr %2, i64 56
  tail call void %60(ptr noundef nonnull %62, ptr noundef nonnull %2) #14
  br label %64

63:                                               ; preds = %pmix_obj_run_destructors.exit27
  tail call void @free(ptr noundef nonnull %2) #14
  br label %64

64:                                               ; preds = %61, %63, %pmix_obj_update.exit
  ret void
}